; ModuleID = '5/121.c'
source_filename = "5/121.c"
target datalayout = "e-m:e-p270:32:32-p271:32:32-p272:64:64-i64:64-f80:128-n8:16:32:64-S128"
target triple = "x86_64-pc-linux-gnu"

@.str = private unnamed_addr constant [4 x i8] c"%lf\00", align 1
@.str.1 = private unnamed_addr constant [5 x i8] c"%s%s\00", align 1
@sen = common dso_local global [100 x [500 x i8]] zeroinitializer, align 16
@.str.2 = private unnamed_addr constant [4 x i8] c"yes\00", align 1
@.str.3 = private unnamed_addr constant [3 x i8] c"no\00", align 1
@.str.4 = private unnamed_addr constant [6 x i8] c"error\00", align 1
@ori = common dso_local global i8 0, align 1
@final = common dso_local global i8 0, align 1
@temp = common dso_local global i8 0, align 1

; Function Attrs: noinline nounwind uwtable
define dso_local i32 @main() #0 {
  %1 = alloca i32, align 4
  %2 = alloca i32, align 4
  %3 = alloca i32, align 4
  %4 = alloca i32, align 4
  %5 = alloca i32, align 4
  %6 = alloca i32, align 4
  %7 = alloca i32, align 4
  %8 = alloca i32, align 4
  %9 = alloca i32, align 4
  %10 = alloca i32, align 4
  %11 = alloca i32, align 4
  %12 = alloca i32, align 4
  %13 = alloca i32, align 4
  %14 = alloca [100 x i32], align 16
  %15 = alloca double, align 8
  %16 = alloca double, align 8
  store i32 0, i32* %1, align 4
  store i32 0, i32* %8, align 4
  store i32 0, i32* %12, align 4
  %17 = call i32 (i8*, ...) @__isoc99_scanf(i8* getelementptr inbounds ([4 x i8], [4 x i8]* @.str, i64 0, i64 0), double* %15)
  %18 = call i32 (i8*, ...) @__isoc99_scanf(i8* getelementptr inbounds ([5 x i8], [5 x i8]* @.str.1, i64 0, i64 0), i8* getelementptr inbounds ([100 x [500 x i8]], [100 x [500 x i8]]* @sen, i64 0, i64 0, i64 0), i8* getelementptr inbounds ([100 x [500 x i8]], [100 x [500 x i8]]* @sen, i64 0, i64 1, i64 0))
  store i32 0, i32* %6, align 4
  br label %19

19:                                               ; preds = %88, %0
  %20 = load i32, i32* %6, align 4
  %21 = icmp slt i32 %20, 2
  br i1 %21, label %22, label %25

22:                                               ; preds = %19
  %23 = load i32, i32* %12, align 4
  %24 = icmp eq i32 %23, 0
  br label %25

25:                                               ; preds = %22, %19
  %26 = phi i1 [ false, %19 ], [ %24, %22 ]
  br i1 %26, label %27, label %91

27:                                               ; preds = %25
  store i32 0, i32* %7, align 4
  br label %28

28:                                               ; preds = %84, %27
  %29 = load i32, i32* %7, align 4
  %30 = sext i32 %29 to i64
  %31 = load i32, i32* %6, align 4
  %32 = sext i32 %31 to i64
  %33 = getelementptr inbounds [100 x [500 x i8]], [100 x [500 x i8]]* @sen, i64 0, i64 %32
  %34 = getelementptr inbounds [500 x i8], [500 x i8]* %33, i64 0, i64 0
  %35 = call i64 @strlen(i8* %34) #3
  %36 = icmp ult i64 %30, %35
  br i1 %36, label %37, label %40

37:                                               ; preds = %28
  %38 = load i32, i32* %12, align 4
  %39 = icmp eq i32 %38, 0
  br label %40

40:                                               ; preds = %37, %28
  %41 = phi i1 [ false, %28 ], [ %39, %37 ]
  br i1 %41, label %42, label %87

42:                                               ; preds = %40
  %43 = load i32, i32* %6, align 4
  %44 = sext i32 %43 to i64
  %45 = getelementptr inbounds [100 x [500 x i8]], [100 x [500 x i8]]* @sen, i64 0, i64 %44
  %46 = load i32, i32* %7, align 4
  %47 = sext i32 %46 to i64
  %48 = getelementptr inbounds [500 x i8], [500 x i8]* %45, i64 0, i64 %47
  %49 = load i8, i8* %48, align 1
  %50 = sext i8 %49 to i32
  %51 = icmp ne i32 %50, 65
  br i1 %51, label %52, label %83

52:                                               ; preds = %42
  %53 = load i32, i32* %6, align 4
  %54 = sext i32 %53 to i64
  %55 = getelementptr inbounds [100 x [500 x i8]], [100 x [500 x i8]]* @sen, i64 0, i64 %54
  %56 = load i32, i32* %7, align 4
  %57 = sext i32 %56 to i64
  %58 = getelementptr inbounds [500 x i8], [500 x i8]* %55, i64 0, i64 %57
  %59 = load i8, i8* %58, align 1
  %60 = sext i8 %59 to i32
  %61 = icmp ne i32 %60, 84
  br i1 %61, label %62, label %83

62:                                               ; preds = %52
  %63 = load i32, i32* %6, align 4
  %64 = sext i32 %63 to i64
  %65 = getelementptr inbounds [100 x [500 x i8]], [100 x [500 x i8]]* @sen, i64 0, i64 %64
  %66 = load i32, i32* %7, align 4
  %67 = sext i32 %66 to i64
  %68 = getelementptr inbounds [500 x i8], [500 x i8]* %65, i64 0, i64 %67
  %69 = load i8, i8* %68, align 1
  %70 = sext i8 %69 to i32
  %71 = icmp ne i32 %70, 67
  br i1 %71, label %72, label %83

72:                                               ; preds = %62
  %73 = load i32, i32* %6, align 4
  %74 = sext i32 %73 to i64
  %75 = getelementptr inbounds [100 x [500 x i8]], [100 x [500 x i8]]* @sen, i64 0, i64 %74
  %76 = load i32, i32* %7, align 4
  %77 = sext i32 %76 to i64
  %78 = getelementptr inbounds [500 x i8], [500 x i8]* %75, i64 0, i64 %77
  %79 = load i8, i8* %78, align 1
  %80 = sext i8 %79 to i32
  %81 = icmp ne i32 %80, 71
  br i1 %81, label %82, label %83

82:                                               ; preds = %72
  store i32 1, i32* %12, align 4
  br label %83

83:                                               ; preds = %82, %72, %62, %52, %42
  br label %84

84:                                               ; preds = %83
  %85 = load i32, i32* %7, align 4
  %86 = add nsw i32 %85, 1
  store i32 %86, i32* %7, align 4
  br label %28

87:                                               ; preds = %40
  br label %88

88:                                               ; preds = %87
  %89 = load i32, i32* %6, align 4
  %90 = add nsw i32 %89, 1
  store i32 %90, i32* %6, align 4
  br label %19

91:                                               ; preds = %25
  %92 = load i32, i32* %12, align 4
  %93 = icmp eq i32 %92, 0
  br i1 %93, label %94, label %141

94:                                               ; preds = %91
  %95 = call i64 @strlen(i8* getelementptr inbounds ([100 x [500 x i8]], [100 x [500 x i8]]* @sen, i64 0, i64 0, i64 0)) #3
  %96 = call i64 @strlen(i8* getelementptr inbounds ([100 x [500 x i8]], [100 x [500 x i8]]* @sen, i64 0, i64 1, i64 0)) #3
  %97 = icmp eq i64 %95, %96
  br i1 %97, label %98, label %138

98:                                               ; preds = %94
  store i32 0, i32* %6, align 4
  br label %99

99:                                               ; preds = %120, %98
  %100 = load i32, i32* %6, align 4
  %101 = sext i32 %100 to i64
  %102 = call i64 @strlen(i8* getelementptr inbounds ([100 x [500 x i8]], [100 x [500 x i8]]* @sen, i64 0, i64 0, i64 0)) #3
  %103 = icmp ult i64 %101, %102
  br i1 %103, label %104, label %123

104:                                              ; preds = %99
  %105 = load i32, i32* %6, align 4
  %106 = sext i32 %105 to i64
  %107 = getelementptr inbounds [500 x i8], [500 x i8]* getelementptr inbounds ([100 x [500 x i8]], [100 x [500 x i8]]* @sen, i64 0, i64 0), i64 0, i64 %106
  %108 = load i8, i8* %107, align 1
  %109 = sext i8 %108 to i32
  %110 = load i32, i32* %6, align 4
  %111 = sext i32 %110 to i64
  %112 = getelementptr inbounds [500 x i8], [500 x i8]* getelementptr inbounds ([100 x [500 x i8]], [100 x [500 x i8]]* @sen, i64 0, i64 1), i64 0, i64 %111
  %113 = load i8, i8* %112, align 1
  %114 = sext i8 %113 to i32
  %115 = icmp eq i32 %109, %114
  br i1 %115, label %116, label %119

116:                                              ; preds = %104
  %117 = load i32, i32* %8, align 4
  %118 = add nsw i32 %117, 1
  store i32 %118, i32* %8, align 4
  br label %119

119:                                              ; preds = %116, %104
  br label %120

120:                                              ; preds = %119
  %121 = load i32, i32* %6, align 4
  %122 = add nsw i32 %121, 1
  store i32 %122, i32* %6, align 4
  br label %99

123:                                              ; preds = %99
  %124 = load i32, i32* %8, align 4
  %125 = sitofp i32 %124 to double
  %126 = fmul double 1.000000e+00, %125
  %127 = call i64 @strlen(i8* getelementptr inbounds ([100 x [500 x i8]], [100 x [500 x i8]]* @sen, i64 0, i64 0, i64 0)) #3
  %128 = uitofp i64 %127 to double
  %129 = fdiv double %126, %128
  store double %129, double* %16, align 8
  %130 = load double, double* %16, align 8
  %131 = load double, double* %15, align 8
  %132 = fcmp oge double %130, %131
  br i1 %132, label %133, label %135

133:                                              ; preds = %123
  %134 = call i32 (i8*, ...) @printf(i8* getelementptr inbounds ([4 x i8], [4 x i8]* @.str.2, i64 0, i64 0))
  br label %137

135:                                              ; preds = %123
  %136 = call i32 (i8*, ...) @printf(i8* getelementptr inbounds ([3 x i8], [3 x i8]* @.str.3, i64 0, i64 0))
  br label %137

137:                                              ; preds = %135, %133
  br label %140

138:                                              ; preds = %94
  %139 = call i32 (i8*, ...) @printf(i8* getelementptr inbounds ([6 x i8], [6 x i8]* @.str.4, i64 0, i64 0))
  br label %140

140:                                              ; preds = %138, %137
  br label %143

141:                                              ; preds = %91
  %142 = call i32 (i8*, ...) @printf(i8* getelementptr inbounds ([6 x i8], [6 x i8]* @.str.4, i64 0, i64 0))
  br label %143

143:                                              ; preds = %141, %140
  ret i32 0
}

declare dso_local i32 @__isoc99_scanf(i8*, ...) #1

; Function Attrs: nounwind readonly
declare dso_local i64 @strlen(i8*) #2

declare dso_local i32 @printf(i8*, ...) #1


!llvm.module.flags = !{!0}
!llvm.ident = !{!1}

!0 = !{i32 1, !"wchar_size", i32 4}
!1 = !{!"clang version 10.0.0-4ubuntu1 "}
